
./calc:	file format mach-o arm64

Disassembly of section __TEXT,__text:

0000000100000460 <_get_double>:
100000460: d10543ff    	sub	sp, sp, #0x150
100000464: a9136ffc    	stp	x28, x27, [sp, #0x130]
100000468: a9147bfd    	stp	x29, x30, [sp, #0x140]
10000046c: 910503fd    	add	x29, sp, #0x140
100000470: 90000028    	adrp	x8, 0x100004000 <_sscanf+0x100004000>
100000474: f9400508    	ldr	x8, [x8, #0x8]
100000478: f9400108    	ldr	x8, [x8]
10000047c: f81e83a8    	stur	x8, [x29, #-0x18]
100000480: f90013e0    	str	x0, [sp, #0x20]
100000484: 14000001    	b	0x100000488 <_get_double+0x28>
100000488: f94013e8    	ldr	x8, [sp, #0x20]
10000048c: 910003e9    	mov	x9, sp
100000490: f9000128    	str	x8, [x9]
100000494: 90000000    	adrp	x0, 0x100000000 <_sscanf+0x100000000>
100000498: 91203000    	add	x0, x0, #0x80c
10000049c: 940000d6    	bl	0x1000007f4 <_sscanf+0x1000007f4>
1000004a0: 90000028    	adrp	x8, 0x100004000 <_sscanf+0x100004000>
1000004a4: f9400908    	ldr	x8, [x8, #0x10]
1000004a8: f9400102    	ldr	x2, [x8]
1000004ac: 9100a3e0    	add	x0, sp, #0x28
1000004b0: 52802001    	mov	w1, #0x100              ; =256
1000004b4: 940000cd    	bl	0x1000007e8 <_sscanf+0x1000007e8>
1000004b8: b50000e0    	cbnz	x0, 0x1000004d4 <_get_double+0x74>
1000004bc: 14000001    	b	0x1000004c0 <_get_double+0x60>
1000004c0: 90000000    	adrp	x0, 0x100000000 <_sscanf+0x100000000>
1000004c4: 91203c00    	add	x0, x0, #0x80f
1000004c8: 940000cb    	bl	0x1000007f4 <_sscanf+0x1000007f4>
1000004cc: 52800020    	mov	w0, #0x1                ; =1
1000004d0: 940000c3    	bl	0x1000007dc <_sscanf+0x1000007dc>
1000004d4: 910003e9    	mov	x9, sp
1000004d8: 910063e8    	add	x8, sp, #0x18
1000004dc: f9000128    	str	x8, [x9]
1000004e0: 9100a3e0    	add	x0, sp, #0x28
1000004e4: 90000001    	adrp	x1, 0x100000000 <_sscanf+0x100000000>
1000004e8: 91209421    	add	x1, x1, #0x825
1000004ec: 940000c5    	bl	0x100000800 <_sscanf+0x100000800>
1000004f0: b90017e0    	str	w0, [sp, #0x14]
1000004f4: b94017e8    	ldr	w8, [sp, #0x14]
1000004f8: 71000508    	subs	w8, w8, #0x1
1000004fc: 54000221    	b.ne	0x100000540 <_get_double+0xe0>
100000500: 14000001    	b	0x100000504 <_get_double+0xa4>
100000504: fd400fe0    	ldr	d0, [sp, #0x18]
100000508: fd0007e0    	str	d0, [sp, #0x8]
10000050c: f85e83a9    	ldur	x9, [x29, #-0x18]
100000510: 90000028    	adrp	x8, 0x100004000 <_sscanf+0x100004000>
100000514: f9400508    	ldr	x8, [x8, #0x8]
100000518: f9400108    	ldr	x8, [x8]
10000051c: eb090108    	subs	x8, x8, x9
100000520: 54000060    	b.eq	0x10000052c <_get_double+0xcc>
100000524: 14000001    	b	0x100000528 <_get_double+0xc8>
100000528: 940000aa    	bl	0x1000007d0 <_sscanf+0x1000007d0>
10000052c: fd4007e0    	ldr	d0, [sp, #0x8]
100000530: a9547bfd    	ldp	x29, x30, [sp, #0x140]
100000534: a9536ffc    	ldp	x28, x27, [sp, #0x130]
100000538: 910543ff    	add	sp, sp, #0x150
10000053c: d65f03c0    	ret
100000540: 90000000    	adrp	x0, 0x100000000 <_sscanf+0x100000000>
100000544: 9120a400    	add	x0, x0, #0x829
100000548: 940000ab    	bl	0x1000007f4 <_sscanf+0x1000007f4>
10000054c: 14000001    	b	0x100000550 <_get_double+0xf0>
100000550: 17ffffce    	b	0x100000488 <_get_double+0x28>

0000000100000554 <_main>:
100000554: d10603ff    	sub	sp, sp, #0x180
100000558: a9166ffc    	stp	x28, x27, [sp, #0x160]
10000055c: a9177bfd    	stp	x29, x30, [sp, #0x170]
100000560: 9105c3fd    	add	x29, sp, #0x170
100000564: 90000028    	adrp	x8, 0x100004000 <_sscanf+0x100004000>
100000568: f9400508    	ldr	x8, [x8, #0x8]
10000056c: f9400108    	ldr	x8, [x8]
100000570: f81e83a8    	stur	x8, [x29, #-0x18]
100000574: b90057ff    	str	wzr, [sp, #0x54]
100000578: b90037ff    	str	wzr, [sp, #0x34]
10000057c: 90000000    	adrp	x0, 0x100000000 <_sscanf+0x100000000>
100000580: 91215800    	add	x0, x0, #0x856
100000584: 97ffffb7    	bl	0x100000460 <_get_double>
100000588: fd0027e0    	str	d0, [sp, #0x48]
10000058c: 14000001    	b	0x100000590 <_main+0x3c>
100000590: b94037e8    	ldr	w8, [sp, #0x34]
100000594: 35000728    	cbnz	w8, 0x100000678 <_main+0x124>
100000598: 14000001    	b	0x10000059c <_main+0x48>
10000059c: 90000000    	adrp	x0, 0x100000000 <_sscanf+0x100000000>
1000005a0: 9121d800    	add	x0, x0, #0x876
1000005a4: 94000094    	bl	0x1000007f4 <_sscanf+0x1000007f4>
1000005a8: 90000028    	adrp	x8, 0x100004000 <_sscanf+0x100004000>
1000005ac: f9400908    	ldr	x8, [x8, #0x10]
1000005b0: f9400102    	ldr	x2, [x8]
1000005b4: 910163e0    	add	x0, sp, #0x58
1000005b8: 52802001    	mov	w1, #0x100              ; =256
1000005bc: 9400008b    	bl	0x1000007e8 <_sscanf+0x1000007e8>
1000005c0: b50000e0    	cbnz	x0, 0x1000005dc <_main+0x88>
1000005c4: 14000001    	b	0x1000005c8 <_main+0x74>
1000005c8: 90000000    	adrp	x0, 0x100000000 <_sscanf+0x100000000>
1000005cc: 91228c00    	add	x0, x0, #0x8a3
1000005d0: 94000089    	bl	0x1000007f4 <_sscanf+0x1000007f4>
1000005d4: 52800020    	mov	w0, #0x1                ; =1
1000005d8: 94000081    	bl	0x1000007dc <_sscanf+0x1000007dc>
1000005dc: 910003e9    	mov	x9, sp
1000005e0: 91014fe8    	add	x8, sp, #0x53
1000005e4: f9000128    	str	x8, [x9]
1000005e8: 910163e0    	add	x0, sp, #0x58
1000005ec: 90000001    	adrp	x1, 0x100000000 <_sscanf+0x100000000>
1000005f0: 9122f421    	add	x1, x1, #0x8bd
1000005f4: 94000083    	bl	0x100000800 <_sscanf+0x100000800>
1000005f8: 71000408    	subs	w8, w0, #0x1
1000005fc: 54000341    	b.ne	0x100000664 <_main+0x110>
100000600: 14000001    	b	0x100000604 <_main+0xb0>
100000604: 39c14fe8    	ldrsb	w8, [sp, #0x53]
100000608: 7100ad08    	subs	w8, w8, #0x2b
10000060c: 540001c0    	b.eq	0x100000644 <_main+0xf0>
100000610: 14000001    	b	0x100000614 <_main+0xc0>
100000614: 39c14fe8    	ldrsb	w8, [sp, #0x53]
100000618: 7100b508    	subs	w8, w8, #0x2d
10000061c: 54000140    	b.eq	0x100000644 <_main+0xf0>
100000620: 14000001    	b	0x100000624 <_main+0xd0>
100000624: 39c14fe8    	ldrsb	w8, [sp, #0x53]
100000628: 7100a908    	subs	w8, w8, #0x2a
10000062c: 540000c0    	b.eq	0x100000644 <_main+0xf0>
100000630: 14000001    	b	0x100000634 <_main+0xe0>
100000634: 39c14fe8    	ldrsb	w8, [sp, #0x53]
100000638: 7100bd08    	subs	w8, w8, #0x2f
10000063c: 540000a1    	b.ne	0x100000650 <_main+0xfc>
100000640: 14000001    	b	0x100000644 <_main+0xf0>
100000644: 52800028    	mov	w8, #0x1                ; =1
100000648: b90037e8    	str	w8, [sp, #0x34]
10000064c: 14000005    	b	0x100000660 <_main+0x10c>
100000650: 90000000    	adrp	x0, 0x100000000 <_sscanf+0x100000000>
100000654: 91230000    	add	x0, x0, #0x8c0
100000658: 94000067    	bl	0x1000007f4 <_sscanf+0x1000007f4>
10000065c: 14000001    	b	0x100000660 <_main+0x10c>
100000660: 14000005    	b	0x100000674 <_main+0x120>
100000664: 90000000    	adrp	x0, 0x100000000 <_sscanf+0x100000000>
100000668: 9123b000    	add	x0, x0, #0x8ec
10000066c: 94000062    	bl	0x1000007f4 <_sscanf+0x1000007f4>
100000670: 14000001    	b	0x100000674 <_main+0x120>
100000674: 17ffffc7    	b	0x100000590 <_main+0x3c>
100000678: 90000000    	adrp	x0, 0x100000000 <_sscanf+0x100000000>
10000067c: 9124ac00    	add	x0, x0, #0x92b
100000680: 97ffff78    	bl	0x100000460 <_get_double>
100000684: fd0023e0    	str	d0, [sp, #0x40]
100000688: 39c14fe8    	ldrsb	w8, [sp, #0x53]
10000068c: b90033e8    	str	w8, [sp, #0x30]
100000690: 7100a908    	subs	w8, w8, #0x2a
100000694: 54000300    	b.eq	0x1000006f4 <_main+0x1a0>
100000698: 14000001    	b	0x10000069c <_main+0x148>
10000069c: b94033e8    	ldr	w8, [sp, #0x30]
1000006a0: 7100ad08    	subs	w8, w8, #0x2b
1000006a4: 54000140    	b.eq	0x1000006cc <_main+0x178>
1000006a8: 14000001    	b	0x1000006ac <_main+0x158>
1000006ac: b94033e8    	ldr	w8, [sp, #0x30]
1000006b0: 7100b508    	subs	w8, w8, #0x2d
1000006b4: 54000160    	b.eq	0x1000006e0 <_main+0x18c>
1000006b8: 14000001    	b	0x1000006bc <_main+0x168>
1000006bc: b94033e8    	ldr	w8, [sp, #0x30]
1000006c0: 7100bd08    	subs	w8, w8, #0x2f
1000006c4: 54000220    	b.eq	0x100000708 <_main+0x1b4>
1000006c8: 14000020    	b	0x100000748 <_main+0x1f4>
1000006cc: fd4027e0    	ldr	d0, [sp, #0x48]
1000006d0: fd4023e1    	ldr	d1, [sp, #0x40]
1000006d4: 1e612800    	fadd	d0, d0, d1
1000006d8: fd001fe0    	str	d0, [sp, #0x38]
1000006dc: 1400001f    	b	0x100000758 <_main+0x204>
1000006e0: fd4027e0    	ldr	d0, [sp, #0x48]
1000006e4: fd4023e1    	ldr	d1, [sp, #0x40]
1000006e8: 1e613800    	fsub	d0, d0, d1
1000006ec: fd001fe0    	str	d0, [sp, #0x38]
1000006f0: 1400001a    	b	0x100000758 <_main+0x204>
1000006f4: fd4027e0    	ldr	d0, [sp, #0x48]
1000006f8: fd4023e1    	ldr	d1, [sp, #0x40]
1000006fc: 1e610800    	fmul	d0, d0, d1
100000700: fd001fe0    	str	d0, [sp, #0x38]
100000704: 14000015    	b	0x100000758 <_main+0x204>
100000708: fd4023e0    	ldr	d0, [sp, #0x40]
10000070c: 1e602008    	fcmp	d0, #0.0
100000710: 540000e0    	b.eq	0x10000072c <_main+0x1d8>
100000714: 14000001    	b	0x100000718 <_main+0x1c4>
100000718: fd4027e0    	ldr	d0, [sp, #0x48]
10000071c: fd4023e1    	ldr	d1, [sp, #0x40]
100000720: 1e611800    	fdiv	d0, d0, d1
100000724: fd001fe0    	str	d0, [sp, #0x38]
100000728: 14000007    	b	0x100000744 <_main+0x1f0>
10000072c: 90000000    	adrp	x0, 0x100000000 <_sscanf+0x100000000>
100000730: 91252c00    	add	x0, x0, #0x94b
100000734: 94000030    	bl	0x1000007f4 <_sscanf+0x1000007f4>
100000738: 52800028    	mov	w8, #0x1                ; =1
10000073c: b90057e8    	str	w8, [sp, #0x54]
100000740: 14000015    	b	0x100000794 <_main+0x240>
100000744: 14000005    	b	0x100000758 <_main+0x204>
100000748: 90000000    	adrp	x0, 0x100000000 <_sscanf+0x100000000>
10000074c: 9125d000    	add	x0, x0, #0x974
100000750: 94000029    	bl	0x1000007f4 <_sscanf+0x1000007f4>
100000754: 14000001    	b	0x100000758 <_main+0x204>
100000758: fd4027e2    	ldr	d2, [sp, #0x48]
10000075c: 39c14fea    	ldrsb	w10, [sp, #0x53]
100000760: fd4023e1    	ldr	d1, [sp, #0x40]
100000764: fd401fe0    	ldr	d0, [sp, #0x38]
100000768: 910003e8    	mov	x8, sp
10000076c: fd000102    	str	d2, [x8]
100000770: aa0a03e9    	mov	x9, x10
100000774: f9000509    	str	x9, [x8, #0x8]
100000778: fd000901    	str	d1, [x8, #0x10]
10000077c: fd000d00    	str	d0, [x8, #0x18]
100000780: 90000000    	adrp	x0, 0x100000000 <_sscanf+0x100000000>
100000784: 91263400    	add	x0, x0, #0x98d
100000788: 9400001b    	bl	0x1000007f4 <_sscanf+0x1000007f4>
10000078c: b90057ff    	str	wzr, [sp, #0x54]
100000790: 14000001    	b	0x100000794 <_main+0x240>
100000794: b94057e8    	ldr	w8, [sp, #0x54]
100000798: b9002fe8    	str	w8, [sp, #0x2c]
10000079c: f85e83a9    	ldur	x9, [x29, #-0x18]
1000007a0: 90000028    	adrp	x8, 0x100004000 <_sscanf+0x100004000>
1000007a4: f9400508    	ldr	x8, [x8, #0x8]
1000007a8: f9400108    	ldr	x8, [x8]
1000007ac: eb090108    	subs	x8, x8, x9
1000007b0: 54000060    	b.eq	0x1000007bc <_main+0x268>
1000007b4: 14000001    	b	0x1000007b8 <_main+0x264>
1000007b8: 94000006    	bl	0x1000007d0 <_sscanf+0x1000007d0>
1000007bc: b9402fe0    	ldr	w0, [sp, #0x2c]
1000007c0: a9577bfd    	ldp	x29, x30, [sp, #0x170]
1000007c4: a9566ffc    	ldp	x28, x27, [sp, #0x160]
1000007c8: 910603ff    	add	sp, sp, #0x180
1000007cc: d65f03c0    	ret

Disassembly of section __TEXT,__stubs:

00000001000007d0 <__stubs>:
1000007d0: 90000030    	adrp	x16, 0x100004000 <_sscanf+0x100004000>
1000007d4: f9400210    	ldr	x16, [x16]
1000007d8: d61f0200    	br	x16
1000007dc: 90000030    	adrp	x16, 0x100004000 <_sscanf+0x100004000>
1000007e0: f9400e10    	ldr	x16, [x16, #0x18]
1000007e4: d61f0200    	br	x16
1000007e8: 90000030    	adrp	x16, 0x100004000 <_sscanf+0x100004000>
1000007ec: f9401210    	ldr	x16, [x16, #0x20]
1000007f0: d61f0200    	br	x16
1000007f4: 90000030    	adrp	x16, 0x100004000 <_sscanf+0x100004000>
1000007f8: f9401610    	ldr	x16, [x16, #0x28]
1000007fc: d61f0200    	br	x16
100000800: 90000030    	adrp	x16, 0x100004000 <_sscanf+0x100004000>
100000804: f9401a10    	ldr	x16, [x16, #0x30]
100000808: d61f0200    	br	x16
